; Function Attrs: nounwind uwtable
define internal void @PicklerMemoProxy_dealloc(ptr noundef %0) #0 {
  %2 = getelementptr i8, ptr %0, i64 8
  %.val = load ptr, ptr %2, align 8, !tbaa !50
  tail call void @PyObject_GC_UnTrack(ptr noundef %0) #13
  %3 = getelementptr inbounds nuw i8, ptr %0, i64 16
  %4 = load ptr, ptr %3, align 8, !tbaa !190
  %.not = icmp eq ptr %4, null
  br i1 %.not, label %Py_DECREF.exit11, label %5

5:                                                ; preds = %1
  store ptr null, ptr %3, align 8, !tbaa !190
  %6 = load i32, ptr %4, align 8, !tbaa !42
  %.not.i10 = icmp sgt i32 %6, -1
  br i1 %.not.i10, label %7, label %Py_DECREF.exit11

7:                                                ; preds = %5
  %8 = add nsw i32 %6, -1
  store i32 %8, ptr %4, align 8, !tbaa !42
  %9 = icmp eq i32 %8, 0
  br i1 %9, label %10, label %Py_DECREF.exit11

10:                                               ; preds = %7
  tail call void @_Py_Dealloc(ptr noundef nonnull %4) #13
  br label %Py_DECREF.exit11

Py_DECREF.exit11:                                 ; preds = %10, %7, %5, %1
  %11 = getelementptr inbounds nuw i8, ptr %.val, i64 320
  %12 = load ptr, ptr %11, align 8, !tbaa !189
  tail call void %12(ptr noundef nonnull %0) #13
  %13 = load i32, ptr %.val, align 8, !tbaa !42
  %.not.i = icmp sgt i32 %13, -1
  br i1 %.not.i, label %14, label %Py_DECREF.exit

14:                                               ; preds = %Py_DECREF.exit11
  %15 = add nsw i32 %13, -1
  store i32 %15, ptr %.val, align 8, !tbaa !42
  %16 = icmp eq i32 %15, 0
  br i1 %16, label %17, label %Py_DECREF.exit

17:                                               ; preds = %14
  tail call void @_Py_Dealloc(ptr noundef nonnull %.val) #13
  br label %Py_DECREF.exit

Py_DECREF.exit:                                   ; preds = %Py_DECREF.exit11, %14, %17
  ret void
}